target datalayout = "e-m:e-p270:32:32-p271:32:32-p272:64:64-i64:64-i128:128-f80:128-n8:16:32:64-S128"
target triple = "x86_64-pc-linux-gnu"

%struct._zend_executor_globals = type { %struct._zval_struct, %struct._zval_struct, [32 x ptr], ptr, ptr, %struct._zend_array, %struct._zend_array, ptr, i32, i32, ptr, ptr, ptr, ptr, ptr, ptr, i64, ptr, ptr, i32, i32, i64, i32, i32, i32, i8, i8, %struct.zend_atomic_bool_s, %struct.zend_atomic_bool_s, ptr, i64, ptr, ptr, %struct._zend_array, %struct._zend_array, i32, i8, %struct._zval_struct, %struct._zval_struct, %struct._zend_stack, %struct._zend_stack, %struct._zend_stack, ptr, i32, i32, i64, ptr, ptr, ptr, %struct._zend_objects_store, ptr, ptr, ptr, [3 x %struct._zend_op], ptr, i8, i8, i64, i32, i32, ptr, [16 x %struct._HashTableIterator], ptr, %union._zend_function, %struct._zend_op, %struct._zend_array, i64, %struct.zend_get_gc_buffer, ptr, ptr, ptr, i64, i8, i32, ptr, ptr, i64, %struct._zend_call_stack, i64, i64, [6 x ptr] }
%struct.zend_atomic_bool_s = type { i8 }
%struct._zval_struct = type { %union._zend_value, %union.anon, %union.anon.2 }
%union._zend_value = type { i64 }
%union.anon = type { i32 }
%union.anon.2 = type { i32 }
%struct._zend_stack = type { i32, i32, i32, ptr }
%struct._zend_objects_store = type { ptr, i32, i32, i32 }
%struct._HashTableIterator = type { ptr, i32, i32 }
%union._zend_function = type { %struct._zend_op_array }
%struct._zend_op_array = type { i8, [3 x i8], i32, ptr, ptr, ptr, i32, i32, ptr, ptr, ptr, ptr, i32, i32, i32, i32, ptr, ptr, ptr, ptr, ptr, i32, i32, ptr, ptr, ptr, i32, i32, i32, i32, ptr, ptr, [6 x ptr] }
%struct._zend_op = type { ptr, %union._znode_op, %union._znode_op, %union._znode_op, i32, i32, i8, i8, i8, i8 }
%union._znode_op = type { i32 }
%struct._zend_array = type { %struct._zend_refcounted_h, %union.anon.4, i32, %union.anon.6, i32, i32, i32, i32, i64, ptr }
%struct._zend_refcounted_h = type { i32, %union.anon.3 }
%union.anon.3 = type { i32 }
%union.anon.4 = type { i32 }
%union.anon.6 = type { ptr }
%struct.zend_get_gc_buffer = type { ptr, ptr, ptr }
%struct._zend_call_stack = type { ptr, i64 }
%struct._zend_object_handlers = type { i32, ptr, ptr, ptr, ptr, ptr, ptr, ptr, ptr, ptr, ptr, ptr, ptr, ptr, ptr, ptr, ptr, ptr, ptr, ptr, ptr, ptr, ptr, ptr, ptr }
%struct._zend_execute_data = type { ptr, ptr, ptr, ptr, %struct._zval_struct, ptr, ptr, ptr, ptr }
%struct.php_sxe_object = type { ptr, ptr, ptr, ptr, %struct.anon.8, %struct._zval_struct, ptr, %struct._zend_object }
%struct.anon.8 = type { ptr, ptr, i32, i32, %struct._zval_struct }
%struct._zend_object = type { %struct._zend_refcounted_h, i32, ptr, ptr, ptr, [1 x %struct._zval_struct] }
%struct._xmlNode = type { ptr, i32, ptr, ptr, ptr, ptr, ptr, ptr, ptr, ptr, ptr, ptr, ptr, ptr, i16, i16 }
%struct._php_libxml_node_object = type { ptr, ptr, %struct._zend_object }
%struct._zend_class_entry = type { i8, ptr, %union.anon.9, i32, i32, i32, i32, ptr, ptr, ptr, %struct._zend_array, %struct._zend_array, %struct._zend_array, ptr, ptr, ptr, ptr, ptr, ptr, ptr, ptr, ptr, ptr, ptr, ptr, ptr, ptr, ptr, ptr, ptr, ptr, ptr, %union.anon.10, ptr, ptr, ptr, ptr, i32, i32, %union.anon.11, ptr, ptr, ptr, ptr, i32, ptr, ptr, %union.anon.12 }
%union.anon.9 = type { ptr }
%union.anon.10 = type { ptr }
%union.anon.11 = type { ptr }
%union.anon.12 = type { %struct.anon.13 }
%struct.anon.13 = type { ptr, i32, i32 }
%struct.anon.7 = type { i8, [3 x i8], i32, ptr, ptr, ptr, i32, i32, ptr, ptr, ptr, ptr, i32 }

@ce_SimpleXMLElement = dso_local global ptr null, align 8
@executor_globals = external global %struct._zend_executor_globals, align 8
@.str.24 = private unnamed_addr constant [5 x i8] c"o|C!\00", align 1
@.str.25 = private unnamed_addr constant [25 x i8] c"must be a valid XML node\00", align 1
@.str.26 = private unnamed_addr constant [44 x i8] c"Imported Node must have associated Document\00", align 1
@.str.27 = private unnamed_addr constant [27 x i8] c"Invalid Nodetype to import\00", align 1
@zend_known_strings = external global ptr, align 8

; Function Attrs: nounwind uwtable
define internal ptr @php_sxe_object_new(ptr noundef %0, ptr noundef %1) #0 {
  %3 = alloca ptr, align 8
  %4 = alloca i64, align 8
  %5 = alloca ptr, align 8
  %6 = alloca ptr, align 8
  %7 = alloca ptr, align 8
  %8 = alloca ptr, align 8
  %9 = alloca ptr, align 8
  store ptr %0, ptr %7, align 8
  store ptr %1, ptr %8, align 8
  %10 = load ptr, ptr %7, align 8
  store i64 152, ptr %4, align 8
  store ptr %10, ptr %5, align 8
  %11 = load i64, ptr %4, align 8
  %12 = load ptr, ptr %5, align 8
  store ptr %12, ptr %3, align 8
  %13 = load ptr, ptr %3, align 8
  %14 = getelementptr inbounds %struct._zend_class_entry, ptr %13, i32 0, i32 5
  %15 = load i32, ptr %14, align 8
  %16 = load ptr, ptr %3, align 8
  %17 = getelementptr inbounds %struct._zend_class_entry, ptr %16, i32 0, i32 4
  %18 = load i32, ptr %17, align 4
  %19 = and i32 %18, 2048
  %20 = icmp ne i32 %19, 0
  %21 = select i1 %20, i32 0, i32 1
  %22 = sub nsw i32 %15, %21
  %23 = sext i32 %22 to i64
  %24 = mul i64 16, %23
  %25 = add i64 %11, %24
  %26 = call noalias ptr @_emalloc(i64 noundef %25) #10
  store ptr %26, ptr %6, align 8
  %27 = load ptr, ptr %6, align 8
  %28 = load i64, ptr %4, align 8
  %29 = sub i64 %28, 56
  call void @llvm.memset.p0.i64(ptr align 1 %27, i8 0, i64 %29, i1 false)
  %30 = load ptr, ptr %6, align 8
  store ptr %30, ptr %9, align 8
  %31 = load ptr, ptr %9, align 8
  %32 = getelementptr inbounds %struct.php_sxe_object, ptr %31, i32 0, i32 4
  %33 = getelementptr inbounds %struct.anon.8, ptr %32, i32 0, i32 3
  store i32 0, ptr %33, align 4
  %34 = load ptr, ptr %9, align 8
  %35 = getelementptr inbounds %struct.php_sxe_object, ptr %34, i32 0, i32 4
  %36 = getelementptr inbounds %struct.anon.8, ptr %35, i32 0, i32 1
  store ptr null, ptr %36, align 8
  %37 = load ptr, ptr %9, align 8
  %38 = getelementptr inbounds %struct.php_sxe_object, ptr %37, i32 0, i32 4
  %39 = getelementptr inbounds %struct.anon.8, ptr %38, i32 0, i32 0
  store ptr null, ptr %39, align 8
  %40 = load ptr, ptr %8, align 8
  %41 = load ptr, ptr %9, align 8
  %42 = getelementptr inbounds %struct.php_sxe_object, ptr %41, i32 0, i32 6
  store ptr %40, ptr %42, align 8
  %43 = load ptr, ptr %9, align 8
  %44 = getelementptr inbounds %struct.php_sxe_object, ptr %43, i32 0, i32 7
  %45 = load ptr, ptr %7, align 8
  call void @zend_object_std_init(ptr noundef %44, ptr noundef %45)
  %46 = load ptr, ptr %9, align 8
  %47 = getelementptr inbounds %struct.php_sxe_object, ptr %46, i32 0, i32 7
  %48 = load ptr, ptr %7, align 8
  call void @object_properties_init(ptr noundef %47, ptr noundef %48)
  %49 = load ptr, ptr %9, align 8
  ret ptr %49
}

; Function Attrs: nounwind uwtable
define internal ptr @php_libxml_node_fetch_object(ptr noundef %0) #0 {
  %2 = alloca ptr, align 8
  store ptr %0, ptr %2, align 8
  %3 = load ptr, ptr %2, align 8
  %4 = load ptr, ptr %2, align 8
  %5 = getelementptr inbounds %struct._zend_object, ptr %4, i32 0, i32 3
  %6 = load ptr, ptr %5, align 8
  %7 = getelementptr inbounds %struct._zend_object_handlers, ptr %6, i32 0, i32 0
  %8 = load i32, ptr %7, align 8
  %9 = sext i32 %8 to i64
  %10 = sub i64 0, %9
  %11 = getelementptr inbounds i8, ptr %3, i64 %10
  ret ptr %11
}

; Function Attrs: nounwind uwtable
define internal ptr @php_sxe_find_fptr_count(ptr noundef %0) #0 {
  %2 = alloca ptr, align 8
  %3 = alloca ptr, align 8
  %4 = alloca ptr, align 8
  %5 = alloca ptr, align 8
  %6 = alloca ptr, align 8
  %7 = alloca ptr, align 8
  %8 = alloca ptr, align 8
  %9 = alloca i32, align 4
  store ptr %0, ptr %6, align 8
  store ptr null, ptr %7, align 8
  %10 = load ptr, ptr %6, align 8
  store ptr %10, ptr %8, align 8
  store i32 0, ptr %9, align 4
  br label %11

11:                                               ; preds = %19, %1
  %12 = load ptr, ptr %8, align 8
  %13 = icmp ne ptr %12, null
  br i1 %13, label %14, label %23

14:                                               ; preds = %11
  %15 = load ptr, ptr %8, align 8
  %16 = load ptr, ptr @ce_SimpleXMLElement, align 8
  %17 = icmp eq ptr %15, %16
  br i1 %17, label %18, label %19

18:                                               ; preds = %14
  br label %23

19:                                               ; preds = %14
  %20 = load ptr, ptr %8, align 8
  %21 = getelementptr inbounds %struct._zend_class_entry, ptr %20, i32 0, i32 2
  %22 = load ptr, ptr %21, align 8
  store ptr %22, ptr %8, align 8
  store i32 1, ptr %9, align 4
  br label %11

23:                                               ; preds = %18, %11
  %24 = load i32, ptr %9, align 4
  %25 = icmp ne i32 %24, 0
  br i1 %25, label %26, label %53

26:                                               ; preds = %23
  %27 = load ptr, ptr %6, align 8
  %28 = getelementptr inbounds %struct._zend_class_entry, ptr %27, i32 0, i32 10
  %29 = load ptr, ptr @zend_known_strings, align 8
  %30 = getelementptr inbounds ptr, ptr %29, i64 69
  %31 = load ptr, ptr %30, align 8
  store ptr %28, ptr %3, align 8
  store ptr %31, ptr %4, align 8
  %32 = load ptr, ptr %3, align 8
  %33 = load ptr, ptr %4, align 8
  %34 = call ptr @zend_hash_find(ptr noundef %32, ptr noundef %33) #9
  store ptr %34, ptr %5, align 8
  %35 = load ptr, ptr %5, align 8
  %36 = icmp ne ptr %35, null
  br i1 %36, label %37, label %43

37:                                               ; preds = %26
  %38 = load ptr, ptr %5, align 8
  %39 = load ptr, ptr %38, align 8
  %40 = icmp ne ptr %39, null
  call void @llvm.assume(i1 %40)
  %41 = load ptr, ptr %5, align 8
  %42 = load ptr, ptr %41, align 8
  store ptr %42, ptr %2, align 8
  br label %44

43:                                               ; preds = %26
  store ptr null, ptr %2, align 8
  br label %44

44:                                               ; preds = %43, %37
  %45 = load ptr, ptr %2, align 8
  store ptr %45, ptr %7, align 8
  %46 = load ptr, ptr %7, align 8
  %47 = getelementptr inbounds %struct.anon.7, ptr %46, i32 0, i32 4
  %48 = load ptr, ptr %47, align 8
  %49 = load ptr, ptr %8, align 8
  %50 = icmp eq ptr %48, %49
  br i1 %50, label %51, label %52

51:                                               ; preds = %44
  store ptr null, ptr %7, align 8
  br label %52

52:                                               ; preds = %51, %44
  br label %53

53:                                               ; preds = %52, %23
  %54 = load ptr, ptr %7, align 8
  ret ptr %54
}

; Function Attrs: nounwind uwtable
define hidden void @zif_simplexml_import_dom(ptr noundef %0, ptr noundef %1) #0 {
  %3 = alloca ptr, align 8
  %4 = alloca ptr, align 8
  %5 = alloca ptr, align 8
  %6 = alloca ptr, align 8
  %7 = alloca ptr, align 8
  %8 = alloca ptr, align 8
  %9 = alloca ptr, align 8
  %10 = alloca ptr, align 8
  %11 = alloca ptr, align 8
  store ptr %0, ptr %3, align 8
  store ptr %1, ptr %4, align 8
  store ptr null, ptr %8, align 8
  %12 = load ptr, ptr @ce_SimpleXMLElement, align 8
  store ptr %12, ptr %9, align 8
  %13 = load ptr, ptr %3, align 8
  %14 = getelementptr inbounds %struct._zend_execute_data, ptr %13, i32 0, i32 4
  %15 = getelementptr inbounds %struct._zval_struct, ptr %14, i32 0, i32 2
  %16 = load i32, ptr %15, align 4
  %17 = call i32 (i32, ptr, ...) @zend_parse_parameters(i32 noundef %16, ptr noundef @.str.24, ptr noundef %6, ptr noundef %9)
  %18 = icmp eq i32 %17, -1
  br i1 %18, label %19, label %24

19:                                               ; preds = %2
  br label %20

20:                                               ; preds = %19
  %21 = load ptr, ptr getelementptr inbounds (%struct._zend_executor_globals, ptr @executor_globals, i32 0, i32 50), align 8
  %22 = icmp ne ptr %21, null
  call void @llvm.assume(i1 %22)
  br label %112

23:                                               ; No predecessors!
  br label %24

24:                                               ; preds = %23, %2
  %25 = load ptr, ptr %6, align 8
  %26 = call ptr @php_libxml_import_node(ptr noundef %25)
  store ptr %26, ptr %8, align 8
  %27 = load ptr, ptr %8, align 8
  %28 = icmp ne ptr %27, null
  br i1 %28, label %34, label %29

29:                                               ; preds = %24
  call void (i32, ptr, ...) @zend_argument_type_error(i32 noundef 1, ptr noundef @.str.25)
  br label %30

30:                                               ; preds = %29
  %31 = load ptr, ptr getelementptr inbounds (%struct._zend_executor_globals, ptr @executor_globals, i32 0, i32 50), align 8
  %32 = icmp ne ptr %31, null
  call void @llvm.assume(i1 %32)
  br label %112

33:                                               ; No predecessors!
  br label %34

34:                                               ; preds = %33, %24
  %35 = load ptr, ptr %8, align 8
  %36 = getelementptr inbounds %struct._xmlNode, ptr %35, i32 0, i32 8
  %37 = load ptr, ptr %36, align 8
  %38 = icmp eq ptr %37, null
  br i1 %38, label %39, label %46

39:                                               ; preds = %34
  call void (ptr, i32, ptr, ...) @php_error_docref(ptr noundef null, i32 noundef 2, ptr noundef @.str.26)
  br label %40

40:                                               ; preds = %39
  br label %41

41:                                               ; preds = %40
  %42 = load ptr, ptr %4, align 8
  %43 = getelementptr inbounds %struct._zval_struct, ptr %42, i32 0, i32 1
  store i32 1, ptr %43, align 8
  br label %44

44:                                               ; preds = %41
  br label %112

45:                                               ; No predecessors!
  br label %46

46:                                               ; preds = %45, %34
  %47 = load ptr, ptr %8, align 8
  %48 = getelementptr inbounds %struct._xmlNode, ptr %47, i32 0, i32 1
  %49 = load i32, ptr %48, align 8
  %50 = icmp eq i32 %49, 9
  br i1 %50, label %56, label %51

51:                                               ; preds = %46
  %52 = load ptr, ptr %8, align 8
  %53 = getelementptr inbounds %struct._xmlNode, ptr %52, i32 0, i32 1
  %54 = load i32, ptr %53, align 8
  %55 = icmp eq i32 %54, 13
  br i1 %55, label %56, label %59

56:                                               ; preds = %51, %46
  %57 = load ptr, ptr %8, align 8
  %58 = call ptr @xmlDocGetRootElement(ptr noundef %57)
  store ptr %58, ptr %8, align 8
  br label %59

59:                                               ; preds = %56, %51
  %60 = load ptr, ptr %8, align 8
  %61 = icmp ne ptr %60, null
  br i1 %61, label %62, label %107

62:                                               ; preds = %59
  %63 = load ptr, ptr %8, align 8
  %64 = getelementptr inbounds %struct._xmlNode, ptr %63, i32 0, i32 1
  %65 = load i32, ptr %64, align 8
  %66 = icmp eq i32 %65, 1
  br i1 %66, label %67, label %107

67:                                               ; preds = %62
  %68 = load ptr, ptr %9, align 8
  %69 = icmp ne ptr %68, null
  br i1 %69, label %72, label %70

70:                                               ; preds = %67
  %71 = load ptr, ptr @ce_SimpleXMLElement, align 8
  store ptr %71, ptr %9, align 8
  store ptr null, ptr %10, align 8
  br label %75

72:                                               ; preds = %67
  %73 = load ptr, ptr %9, align 8
  %74 = call ptr @php_sxe_find_fptr_count(ptr noundef %73)
  store ptr %74, ptr %10, align 8
  br label %75

75:                                               ; preds = %72, %70
  %76 = load ptr, ptr %6, align 8
  %77 = getelementptr inbounds %struct._zval_struct, ptr %76, i32 0, i32 0
  %78 = load ptr, ptr %77, align 8
  %79 = call ptr @php_libxml_node_fetch_object(ptr noundef %78)
  store ptr %79, ptr %7, align 8
  %80 = load ptr, ptr %9, align 8
  %81 = load ptr, ptr %10, align 8
  %82 = call ptr @php_sxe_object_new(ptr noundef %80, ptr noundef %81)
  store ptr %82, ptr %5, align 8
  %83 = load ptr, ptr %7, align 8
  %84 = getelementptr inbounds %struct._php_libxml_node_object, ptr %83, i32 0, i32 1
  %85 = load ptr, ptr %84, align 8
  %86 = load ptr, ptr %5, align 8
  %87 = getelementptr inbounds %struct.php_sxe_object, ptr %86, i32 0, i32 1
  store ptr %85, ptr %87, align 8
  %88 = load ptr, ptr %5, align 8
  %89 = load ptr, ptr %8, align 8
  %90 = getelementptr inbounds %struct._xmlNode, ptr %89, i32 0, i32 8
  %91 = load ptr, ptr %90, align 8
  %92 = call i32 @php_libxml_increment_doc_ref(ptr noundef %88, ptr noundef %91)
  %93 = load ptr, ptr %5, align 8
  %94 = load ptr, ptr %8, align 8
  %95 = call i32 @php_libxml_increment_node_ptr(ptr noundef %93, ptr noundef %94, ptr noundef null)
  br label %96

96:                                               ; preds = %75
  br label %97

97:                                               ; preds = %96
  %98 = load ptr, ptr %4, align 8
  store ptr %98, ptr %11, align 8
  %99 = load ptr, ptr %5, align 8
  %100 = getelementptr inbounds %struct.php_sxe_object, ptr %99, i32 0, i32 7
  %101 = load ptr, ptr %11, align 8
  %102 = getelementptr inbounds %struct._zval_struct, ptr %101, i32 0, i32 0
  store ptr %100, ptr %102, align 8
  %103 = load ptr, ptr %11, align 8
  %104 = getelementptr inbounds %struct._zval_struct, ptr %103, i32 0, i32 1
  store i32 776, ptr %104, align 8
  br label %105

105:                                              ; preds = %97
  br label %112

106:                                              ; No predecessors!
  br label %112

107:                                              ; preds = %62, %59
  call void (ptr, i32, ptr, ...) @php_error_docref(ptr noundef null, i32 noundef 2, ptr noundef @.str.27)
  br label %108

108:                                              ; preds = %107
  %109 = load ptr, ptr %4, align 8
  %110 = getelementptr inbounds %struct._zval_struct, ptr %109, i32 0, i32 1
  store i32 1, ptr %110, align 8
  br label %111

111:                                              ; preds = %108
  br label %112

112:                                              ; preds = %111, %106, %105, %44, %30, %20
  ret void
}