; Function Attrs: nounwind uwtable
define hidden void @zif_simplexml_import_dom(ptr nocapture noundef readonly %0, ptr nocapture noundef writeonly %1) #1 {
  %3 = alloca ptr, align 8
  %4 = alloca ptr, align 8
  %5 = load ptr, ptr @ce_SimpleXMLElement, align 8
  store ptr %5, ptr %4, align 8
  %6 = getelementptr inbounds i8, ptr %0, i64 44
  %7 = load i32, ptr %6, align 4
  %8 = call i32 (i32, ptr, ...) @zend_parse_parameters(i32 noundef %7, ptr noundef nonnull @.str.24, ptr noundef nonnull %3, ptr noundef nonnull %4) #14
  %9 = icmp eq i32 %8, -1
  br i1 %9, label %10, label %13

10:                                               ; preds = %2
  %11 = load ptr, ptr getelementptr inbounds (%struct._zend_executor_globals, ptr @executor_globals, i64 0, i32 50), align 8
  %12 = icmp ne ptr %11, null
  call void @llvm.assume(i1 %12)
  br label %82

13:                                               ; preds = %2
  %14 = load ptr, ptr %3, align 8
  %15 = call ptr @php_libxml_import_node(ptr noundef %14) #14
  %.not = icmp eq ptr %15, null
  br i1 %.not, label %16, label %19

16:                                               ; preds = %13
  call void (i32, ptr, ...) @zend_argument_type_error(i32 noundef 1, ptr noundef nonnull @.str.25) #14
  %17 = load ptr, ptr getelementptr inbounds (%struct._zend_executor_globals, ptr @executor_globals, i64 0, i32 50), align 8
  %18 = icmp ne ptr %17, null
  call void @llvm.assume(i1 %18)
  br label %82

19:                                               ; preds = %13
  %20 = getelementptr inbounds i8, ptr %15, i64 64
  %21 = load ptr, ptr %20, align 8
  %22 = icmp eq ptr %21, null
  br i1 %22, label %23, label %25

23:                                               ; preds = %19
  call void (ptr, i32, ptr, ...) @php_error_docref(ptr noundef null, i32 noundef 2, ptr noundef nonnull @.str.26) #14
  %24 = getelementptr inbounds i8, ptr %1, i64 8
  store i32 1, ptr %24, align 8
  br label %82

25:                                               ; preds = %19
  %26 = getelementptr inbounds i8, ptr %15, i64 8
  %27 = load i32, ptr %26, align 8
  switch i32 %27, label %.thread [
    i32 9, label %28
    i32 13, label %28
  ]

28:                                               ; preds = %25, %25
  %29 = call ptr @xmlDocGetRootElement(ptr noundef nonnull %15) #14
  %.not25 = icmp eq ptr %29, null
  br i1 %.not25, label %80, label %..thread_crit_edge

..thread_crit_edge:                               ; preds = %28
  %.phi.trans.insert = getelementptr inbounds i8, ptr %29, i64 8
  %.pre = load i32, ptr %.phi.trans.insert, align 8
  br label %.thread

.thread:                                          ; preds = %..thread_crit_edge, %25
  %30 = phi i32 [ %.pre, %..thread_crit_edge ], [ %27, %25 ]
  %.029 = phi ptr [ %29, %..thread_crit_edge ], [ %15, %25 ]
  %31 = icmp eq i32 %30, 1
  br i1 %31, label %32, label %80

32:                                               ; preds = %.thread
  %33 = load ptr, ptr %4, align 8
  %.not26 = icmp eq ptr %33, null
  %34 = load ptr, ptr @ce_SimpleXMLElement, align 8
  br i1 %.not26, label %35, label %36

35:                                               ; preds = %32
  store ptr %34, ptr %4, align 8
  br label %php_sxe_find_fptr_count.exit

36:                                               ; preds = %32
  %37 = icmp eq ptr %34, %33
  br i1 %37, label %php_sxe_find_fptr_count.exit, label %.lr.ph.i

.lr.ph.i:                                         ; preds = %36, %.lr.ph.i
  %.01423.i = phi ptr [ %39, %.lr.ph.i ], [ %33, %36 ]
  %38 = getelementptr inbounds i8, ptr %.01423.i, i64 16
  %39 = load ptr, ptr %38, align 8
  %.not.i = icmp eq ptr %39, null
  %40 = icmp eq ptr %39, %34
  %or.cond.i = or i1 %.not.i, %40
  br i1 %or.cond.i, label %._crit_edge.i, label %.lr.ph.i

._crit_edge.i:                                    ; preds = %.lr.ph.i
  %41 = getelementptr inbounds i8, ptr %33, i64 64
  %42 = load ptr, ptr @zend_known_strings, align 8
  %43 = getelementptr inbounds i8, ptr %42, i64 552
  %44 = load ptr, ptr %43, align 8
  %45 = call ptr @zend_hash_find(ptr noundef nonnull %41, ptr noundef %44) #14
  %.not19.i = icmp ne ptr %45, null
  call void @llvm.assume(i1 %.not19.i)
  %46 = load ptr, ptr %45, align 8, !nonnull !6, !noundef !6
  %47 = getelementptr inbounds i8, ptr %46, i64 16
  %48 = load ptr, ptr %47, align 8
  %49 = icmp eq ptr %48, %39
  %spec.store.select.i = select i1 %49, ptr null, ptr %46
  %.pre30 = load ptr, ptr %4, align 8
  br label %php_sxe_find_fptr_count.exit

php_sxe_find_fptr_count.exit:                     ; preds = %._crit_edge.i, %36, %35
  %50 = phi ptr [ %34, %35 ], [ %.pre30, %._crit_edge.i ], [ %33, %36 ]
  %.021 = phi ptr [ null, %35 ], [ %spec.store.select.i, %._crit_edge.i ], [ null, %36 ]
  %51 = load ptr, ptr %3, align 8
  %52 = load ptr, ptr %51, align 8
  %53 = getelementptr inbounds i8, ptr %52, i64 24
  %54 = load ptr, ptr %53, align 8
  %55 = load i32, ptr %54, align 8
  %56 = sext i32 %55 to i64
  %57 = sub nsw i64 0, %56
  %58 = getelementptr inbounds i8, ptr %52, i64 %57
  %59 = getelementptr inbounds i8, ptr %50, i64 32
  %60 = load i32, ptr %59, align 8
  %61 = getelementptr inbounds i8, ptr %50, i64 28
  %62 = load i32, ptr %61, align 4
  %63 = lshr i32 %62, 11
  %.lobit.i = and i32 %63, 1
  %64 = xor i32 %.lobit.i, 1
  %65 = sub nsw i32 %60, %64
  %66 = sext i32 %65 to i64
  %67 = shl nsw i64 %66, 4
  %68 = add nsw i64 %67, 152
  %69 = call noalias ptr @_emalloc(i64 noundef %68) #15
  %70 = getelementptr inbounds i8, ptr %69, i64 88
  call void @llvm.memset.p0.i64(ptr noundef nonnull align 1 dereferenceable(88) %69, i8 0, i64 88, i1 false)
  store ptr %.021, ptr %70, align 8
  %71 = getelementptr inbounds i8, ptr %69, i64 96
  call void @zend_object_std_init(ptr noundef nonnull %71, ptr noundef %50) #14
  call void @object_properties_init(ptr noundef nonnull %71, ptr noundef %50) #14
  %72 = getelementptr inbounds i8, ptr %58, i64 8
  %73 = load ptr, ptr %72, align 8
  %74 = getelementptr inbounds i8, ptr %69, i64 8
  store ptr %73, ptr %74, align 8
  %75 = getelementptr inbounds i8, ptr %.029, i64 64
  %76 = load ptr, ptr %75, align 8
  %77 = call i32 @php_libxml_increment_doc_ref(ptr noundef %69, ptr noundef %76) #14
  %78 = call i32 @php_libxml_increment_node_ptr(ptr noundef %69, ptr noundef nonnull %.029, ptr noundef null) #14
  store ptr %71, ptr %1, align 8
  %79 = getelementptr inbounds i8, ptr %1, i64 8
  store i32 776, ptr %79, align 8
  br label %82

80:                                               ; preds = %.thread, %28
  call void (ptr, i32, ptr, ...) @php_error_docref(ptr noundef null, i32 noundef 2, ptr noundef nonnull @.str.27) #14
  %81 = getelementptr inbounds i8, ptr %1, i64 8
  store i32 1, ptr %81, align 8
  br label %82

82:                                               ; preds = %80, %php_sxe_find_fptr_count.exit, %23, %16, %10
  ret void
}